; Function Attrs: mustprogress uwtable
define hidden void @_ZNK3opt6optsmt9get_lowerEj(ptr dead_on_unwind noalias writable sret(%class.inf_eps_rational) align 8 initializes((0, 4), (8, 20), (24, 32)) %0, ptr noundef nonnull readonly align 8 captures(none) dereferenceable(120) %1, i32 noundef %2) local_unnamed_addr #4 align 2 personality ptr @__gxx_personality_v0 {
  %4 = getelementptr inbounds nuw i8, ptr %1, i64 24
  %5 = load ptr, ptr %4, align 8, !tbaa !3
  %6 = icmp eq ptr %5, null
  br i1 %6, label %_ZNK6vectorI16inf_eps_rationalI12inf_rationalELb1EjE4sizeEv.exit.thread, label %_ZNK6vectorI16inf_eps_rationalI12inf_rationalELb1EjE4sizeEv.exit

_ZNK6vectorI16inf_eps_rationalI12inf_rationalELb1EjE4sizeEv.exit: ; preds = %3
  %7 = getelementptr inbounds i8, ptr %5, i64 -4
  %8 = load i32, ptr %7, align 4, !tbaa !9
  %.not = icmp ult i32 %2, %8
  br i1 %.not, label %17, label %_ZNK6vectorI16inf_eps_rationalI12inf_rationalELb1EjE4sizeEv.exit.thread

_ZNK6vectorI16inf_eps_rationalI12inf_rationalELb1EjE4sizeEv.exit.thread: ; preds = %3, %_ZNK6vectorI16inf_eps_rationalI12inf_rationalELb1EjE4sizeEv.exit
  %9 = getelementptr inbounds nuw i8, ptr %0, i64 16
  tail call void @llvm.memset.p0.i64(ptr noundef nonnull align 8 dereferenceable(88) %0, i8 0, i64 88, i1 false)
  store i32 1, ptr %9, align 8, !tbaa !13
  %10 = getelementptr inbounds nuw i8, ptr %0, i64 24
  store ptr null, ptr %10, align 8, !tbaa !145
  %11 = getelementptr inbounds nuw i8, ptr %0, i64 36
  store i8 0, ptr %11, align 4
  %12 = getelementptr inbounds nuw i8, ptr %0, i64 48
  store i32 1, ptr %12, align 8, !tbaa !13
  %13 = getelementptr inbounds nuw i8, ptr %0, i64 56
  store ptr null, ptr %13, align 8, !tbaa !145
  %14 = getelementptr inbounds nuw i8, ptr %0, i64 68
  store i8 0, ptr %14, align 4
  %15 = getelementptr inbounds nuw i8, ptr %0, i64 80
  store i32 1, ptr %15, align 8, !tbaa !13
  %16 = getelementptr inbounds nuw i8, ptr %0, i64 88
  store ptr null, ptr %16, align 8, !tbaa !145
  br label %_ZN16inf_eps_rationalI12inf_rationalEC2ERKS1_.exit

17:                                               ; preds = %_ZNK6vectorI16inf_eps_rationalI12inf_rationalELb1EjE4sizeEv.exit
  %18 = zext i32 %2 to i64
  %19 = getelementptr inbounds nuw %class.inf_eps_rational, ptr %5, i64 %18
  store i32 0, ptr %0, align 8, !tbaa !13
  %20 = getelementptr inbounds nuw i8, ptr %0, i64 4
  %21 = load i8, ptr %20, align 4
  %22 = and i8 %21, -4
  store i8 %22, ptr %20, align 4
  %23 = getelementptr inbounds nuw i8, ptr %0, i64 8
  store ptr null, ptr %23, align 8, !tbaa !145
  %24 = getelementptr inbounds nuw i8, ptr %0, i64 16
  store i32 1, ptr %24, align 8, !tbaa !13
  %25 = getelementptr inbounds nuw i8, ptr %0, i64 20
  %26 = load i8, ptr %25, align 4
  %27 = and i8 %26, -4
  store i8 %27, ptr %25, align 4
  %28 = getelementptr inbounds nuw i8, ptr %0, i64 24
  store ptr null, ptr %28, align 8, !tbaa !145
  %29 = load ptr, ptr @_ZN8rational13g_mpq_managerE, align 8, !tbaa !11
  %30 = getelementptr inbounds nuw i8, ptr %19, i64 4
  %31 = load i8, ptr %30, align 4
  %32 = and i8 %31, 1
  %33 = icmp eq i8 %32, 0
  br i1 %33, label %34, label %36

34:                                               ; preds = %17
  %35 = load i32, ptr %19, align 8, !tbaa !13
  store i32 %35, ptr %0, align 8, !tbaa !13
  store i8 %22, ptr %20, align 4
  br label %_ZN11mpq_managerILb1EE3setER3mpzRKS1_.exit.i.i.i

36:                                               ; preds = %17
  tail call void @_ZN11mpz_managerILb1EE7big_setER3mpzRKS1_(ptr noundef nonnull align 8 dereferenceable(728) %29, ptr noundef nonnull align 8 dereferenceable(96) %0, ptr noundef nonnull align 8 dereferenceable(96) %19)
  br label %_ZN11mpq_managerILb1EE3setER3mpzRKS1_.exit.i.i.i

_ZN11mpq_managerILb1EE3setER3mpzRKS1_.exit.i.i.i: ; preds = %36, %34
  %37 = getelementptr inbounds nuw i8, ptr %19, i64 16
  %38 = getelementptr inbounds nuw i8, ptr %19, i64 20
  %39 = load i8, ptr %38, align 4
  %40 = and i8 %39, 1
  %41 = icmp eq i8 %40, 0
  br i1 %41, label %42, label %46

42:                                               ; preds = %_ZN11mpq_managerILb1EE3setER3mpzRKS1_.exit.i.i.i
  %43 = load i32, ptr %37, align 8, !tbaa !13
  store i32 %43, ptr %24, align 8, !tbaa !13
  %44 = load i8, ptr %25, align 4
  %45 = and i8 %44, -2
  store i8 %45, ptr %25, align 4
  br label %_ZN8rationalC2ERKS_.exit.i

46:                                               ; preds = %_ZN11mpq_managerILb1EE3setER3mpzRKS1_.exit.i.i.i
  tail call void @_ZN11mpz_managerILb1EE7big_setER3mpzRKS1_(ptr noundef nonnull align 8 dereferenceable(728) %29, ptr noundef nonnull align 8 dereferenceable(16) %24, ptr noundef nonnull align 8 dereferenceable(16) %37)
  br label %_ZN8rationalC2ERKS_.exit.i

_ZN8rationalC2ERKS_.exit.i:                       ; preds = %46, %42
  %47 = getelementptr inbounds nuw i8, ptr %0, i64 32
  %48 = getelementptr inbounds nuw i8, ptr %19, i64 32
  invoke void @_ZN12inf_rationalC2ERKS_(ptr noundef nonnull align 8 dereferenceable(64) %47, ptr noundef nonnull align 8 dereferenceable(64) %48)
          to label %_ZN16inf_eps_rationalI12inf_rationalEC2ERKS1_.exit unwind label %49

49:                                               ; preds = %_ZN8rationalC2ERKS_.exit.i
  %50 = landingpad { ptr, i32 }
          cleanup
  tail call void @_ZN8rationalD2Ev(ptr noundef nonnull align 8 dereferenceable(96) %0) #23
  resume { ptr, i32 } %50

_ZN16inf_eps_rationalI12inf_rationalEC2ERKS1_.exit: ; preds = %_ZN8rationalC2ERKS_.exit.i, %_ZNK6vectorI16inf_eps_rationalI12inf_rationalELb1EjE4sizeEv.exit.thread
  ret void
}